; Function Attrs: nounwind uwtable
define zeroext i8 @l_Std_Queue_isEmpty___rarg(ptr noundef readonly captures(none) %0) local_unnamed_addr #1 {
  %2 = getelementptr inbounds nuw i8, ptr %0, i64 16
  %3 = load ptr, ptr %2, align 8, !tbaa !4
  %4 = tail call zeroext i8 @l_List_isEmpty___rarg(ptr noundef %3) #4
  %5 = icmp eq i8 %4, 0
  br i1 %5, label %10, label %6

6:                                                ; preds = %1
  %7 = getelementptr inbounds nuw i8, ptr %0, i64 8
  %8 = load ptr, ptr %7, align 8, !tbaa !4
  %9 = tail call zeroext i8 @l_List_isEmpty___rarg(ptr noundef %8) #4
  br label %10

10:                                               ; preds = %1, %6
  %.0 = phi i8 [ %9, %6 ], [ 0, %1 ]
  ret i8 %.0
}